; Function Attrs: mustprogress uwtable
define void @_ZN9grpc_core15FilterStackCall11ReleaseCallEPvN4absl12lts_202308026StatusE(ptr noundef %call, ptr nocapture readnone %0) #3 align 2 personality ptr @__gxx_personality_v0 {
entry:
  %channel_.i = getelementptr inbounds i8, ptr %call, i64 8
  %1 = load ptr, ptr %channel_.i, align 8
  store ptr null, ptr %channel_.i, align 8
  %arena_.i = getelementptr inbounds i8, ptr %call, i64 16
  %2 = load ptr, ptr %arena_.i, align 8
  %vtable.i = load ptr, ptr %call, align 8
  %vfn.i = getelementptr inbounds i8, ptr %vtable.i, i64 120
  %3 = load ptr, ptr %vfn.i, align 8
  tail call void %3(ptr noundef nonnull align 8 dereferenceable(112) %call) #28
  %4 = load atomic i64, ptr %2 monotonic, align 8
  invoke void @_ZN9grpc_core7Channel22UpdateCallSizeEstimateEm(ptr noundef nonnull align 8 dereferenceable(176) %1, i64 noundef %4)
          to label %invoke.cont4.i unwind label %lpad.i

invoke.cont4.i:                                   ; preds = %entry
  invoke void @_ZN9grpc_core5Arena7DestroyEv(ptr noundef nonnull align 8 dereferenceable(48) %2)
          to label %if.then.i.i unwind label %lpad.i

if.then.i.i:                                      ; preds = %invoke.cont4.i
  %refs_.i.i.i = getelementptr inbounds i8, ptr %1, i64 8
  %5 = atomicrmw sub ptr %refs_.i.i.i, i64 1 acq_rel, align 8
  %cmp.i.i.i.i = icmp eq i64 %5, 1
  br i1 %cmp.i.i.i.i, label %if.then.i.i.i, label %_ZN9grpc_core4Call10DeleteThisEv.exit

if.then.i.i.i:                                    ; preds = %if.then.i.i
  %vtable.i.i.i.i = load ptr, ptr %1, align 8
  %vfn.i.i.i.i = getelementptr inbounds i8, ptr %vtable.i.i.i.i, i64 8
  %6 = load ptr, ptr %vfn.i.i.i.i, align 8
  tail call void %6(ptr noundef nonnull align 8 dereferenceable(176) %1) #28
  br label %_ZN9grpc_core4Call10DeleteThisEv.exit

lpad.i:                                           ; preds = %invoke.cont4.i, %entry
  %7 = landingpad { ptr, i32 }
          cleanup
  %cmp.not.i2.i = icmp eq ptr %1, null
  br i1 %cmp.not.i2.i, label %_ZN9grpc_core13RefCountedPtrINS_7ChannelEED2Ev.exit9.i, label %if.then.i3.i

if.then.i3.i:                                     ; preds = %lpad.i
  %refs_.i.i4.i = getelementptr inbounds i8, ptr %1, i64 8
  %8 = atomicrmw sub ptr %refs_.i.i4.i, i64 1 acq_rel, align 8
  %cmp.i.i.i5.i = icmp eq i64 %8, 1
  br i1 %cmp.i.i.i5.i, label %if.then.i.i6.i, label %_ZN9grpc_core13RefCountedPtrINS_7ChannelEED2Ev.exit9.i

if.then.i.i6.i:                                   ; preds = %if.then.i3.i
  %vtable.i.i.i7.i = load ptr, ptr %1, align 8
  %vfn.i.i.i8.i = getelementptr inbounds i8, ptr %vtable.i.i.i7.i, i64 8
  %9 = load ptr, ptr %vfn.i.i.i8.i, align 8
  tail call void %9(ptr noundef nonnull align 8 dereferenceable(176) %1) #28
  br label %_ZN9grpc_core13RefCountedPtrINS_7ChannelEED2Ev.exit9.i

_ZN9grpc_core13RefCountedPtrINS_7ChannelEED2Ev.exit9.i: ; preds = %if.then.i.i6.i, %if.then.i3.i, %lpad.i
  resume { ptr, i32 } %7

_ZN9grpc_core4Call10DeleteThisEv.exit:            ; preds = %if.then.i.i, %if.then.i.i.i
  ret void
}